; Function Attrs: mustprogress uwtable
define hidden void @_ZN3ue231populateReverseAccelerationInfoERNS_10RevAccInfoERKNS_8NGHolderE(ptr noundef nonnull align 8 captures(none) dereferenceable(56) %0, ptr noundef nonnull readonly align 8 captures(none) dereferenceable(136) %1) local_unnamed_addr #1 {
  %3 = getelementptr inbounds nuw i8, ptr %1, i64 104
  %.sroa.01.0.copyload = load ptr, ptr %3, align 8
  %4 = getelementptr inbounds nuw i8, ptr %0, i64 8
  tail call fastcc void @_ZN3ue2L20populateRevAccelInfoERKNS_8NGHolderENS_12graph_detail17vertex_descriptorINS_9ue2_graphIS0_NS_19NFAGraphVertexPropsENS_17NFAGraphEdgePropsEEEEEPSt6vectorINS_9CharReachESaISB_EE(ptr noundef nonnull align 8 dereferenceable(136) %1, ptr %.sroa.01.0.copyload, ptr noundef %4)
  %5 = getelementptr inbounds nuw i8, ptr %1, i64 120
  %.sroa.0.0.copyload = load ptr, ptr %5, align 8
  %6 = getelementptr inbounds nuw i8, ptr %0, i64 32
  tail call fastcc void @_ZN3ue2L20populateRevAccelInfoERKNS_8NGHolderENS_12graph_detail17vertex_descriptorINS_9ue2_graphIS0_NS_19NFAGraphVertexPropsENS_17NFAGraphEdgePropsEEEEEPSt6vectorINS_9CharReachESaISB_EE(ptr noundef nonnull align 8 dereferenceable(136) %1, ptr %.sroa.0.0.copyload, ptr noundef %6)
  store i8 1, ptr %0, align 8
  ret void
}